target datalayout = "e-m:e-p270:32:32-p271:32:32-p272:64:64-i64:64-i128:128-f80:128-n8:16:32:64-S128"
target triple = "x86_64-pc-linux-gnu"

%struct.AHCIState = type { ptr, %struct.AHCIControlRegs, %struct.MemoryRegion, %struct.MemoryRegion, i32, i32, i32, ptr, ptr }
%struct.AHCIControlRegs = type { i32, i32, i32, i32, i32 }
%struct.MemoryRegion = type { %struct.Object, i8, i8, i8, i8, i8, i8, i8, i8, i8, i8, ptr, ptr, ptr, ptr, ptr, ptr, i32, i128, i64, ptr, i64, i8, i8, i8, i8, ptr, i64, i32, %union.anon, %union.anon.0, %union.anon.1, ptr, i32, ptr, ptr, i8 }
%struct.Object = type { ptr, ptr, ptr, i32, ptr }
%union.anon = type { %struct.QTailQLink }
%struct.QTailQLink = type { ptr, ptr }
%union.anon.0 = type { %struct.QTailQLink }
%union.anon.1 = type { %struct.QTailQLink }

; Function Attrs: nounwind sspstrong uwtable
define internal i64 @ahci_idp_read(ptr noundef %0, i64 noundef %1, i32 noundef %2) #0 {
  %4 = alloca i64, align 8
  %5 = alloca ptr, align 8
  %6 = alloca i64, align 8
  %7 = alloca i32, align 4
  %8 = alloca ptr, align 8
  %9 = alloca i32, align 4
  store ptr %0, ptr %5, align 8
  store i64 %1, ptr %6, align 8
  store i32 %2, ptr %7, align 4
  call void @llvm.lifetime.start.p0(i64 8, ptr %8) #15
  %10 = load ptr, ptr %5, align 8
  store ptr %10, ptr %8, align 8
  %11 = load i64, ptr %6, align 8
  %12 = load ptr, ptr %8, align 8
  %13 = getelementptr inbounds nuw %struct.AHCIState, ptr %12, i32 0, i32 4
  %14 = load i32, ptr %13, align 16
  %15 = zext i32 %14 to i64
  %16 = icmp eq i64 %11, %15
  br i1 %16, label %17, label %22

17:                                               ; preds = %3
  %18 = load ptr, ptr %8, align 8
  %19 = getelementptr inbounds nuw %struct.AHCIState, ptr %18, i32 0, i32 5
  %20 = load i32, ptr %19, align 4
  %21 = zext i32 %20 to i64
  store i64 %21, ptr %4, align 8
  store i32 1, ptr %9, align 4
  br label %39

22:                                               ; preds = %3
  %23 = load i64, ptr %6, align 8
  %24 = load ptr, ptr %8, align 8
  %25 = getelementptr inbounds nuw %struct.AHCIState, ptr %24, i32 0, i32 4
  %26 = load i32, ptr %25, align 16
  %27 = add i32 %26, 4
  %28 = zext i32 %27 to i64
  %29 = icmp eq i64 %23, %28
  br i1 %29, label %30, label %38

30:                                               ; preds = %22
  %31 = load ptr, ptr %5, align 8
  %32 = load ptr, ptr %8, align 8
  %33 = getelementptr inbounds nuw %struct.AHCIState, ptr %32, i32 0, i32 5
  %34 = load i32, ptr %33, align 4
  %35 = zext i32 %34 to i64
  %36 = load i32, ptr %7, align 4
  %37 = call i64 @ahci_mem_read(ptr noundef %31, i64 noundef %35, i32 noundef %36)
  store i64 %37, ptr %4, align 8
  store i32 1, ptr %9, align 4
  br label %39

38:                                               ; preds = %22
  store i64 0, ptr %4, align 8
  store i32 1, ptr %9, align 4
  br label %39

39:                                               ; preds = %38, %30, %17
  call void @llvm.lifetime.end.p0(i64 8, ptr %8) #15
  %40 = load i64, ptr %4, align 8
  ret i64 %40
}