; Function Attrs: nounwind sspstrong uwtable
define internal i64 @ahci_idp_read(ptr noundef %0, i64 noundef %1, i32 noundef %2) #0 {
  %4 = getelementptr inbounds nuw i8, ptr %0, i64 576
  %5 = load i32, ptr %4, align 16
  %6 = zext i32 %5 to i64
  %7 = icmp eq i64 %1, %6
  br i1 %7, label %8, label %12

8:                                                ; preds = %3
  %9 = getelementptr inbounds nuw i8, ptr %0, i64 580
  %10 = load i32, ptr %9, align 4
  %11 = zext i32 %10 to i64
  br label %21

12:                                               ; preds = %3
  %13 = add i32 %5, 4
  %14 = zext i32 %13 to i64
  %15 = icmp eq i64 %1, %14
  br i1 %15, label %16, label %21

16:                                               ; preds = %12
  %17 = getelementptr inbounds nuw i8, ptr %0, i64 580
  %18 = load i32, ptr %17, align 4
  %19 = zext i32 %18 to i64
  %20 = tail call i64 @ahci_mem_read(ptr noundef nonnull %0, i64 noundef %19, i32 noundef %2)
  br label %21

21:                                               ; preds = %12, %16, %8
  %.0 = phi i64 [ %11, %8 ], [ %20, %16 ], [ 0, %12 ]
  ret i64 %.0
}